target datalayout = "e-m:e-p270:32:32-p271:32:32-p272:64:64-i64:64-i128:128-f80:128-n8:16:32:64-S128"
target triple = "x86_64-unknown-linux-gnu"

%"class.base::internal::JSONParser" = type <{ i32, [4 x i8], ptr, ptr, ptr, i32, i32, i32, i32, i32, i32, i32, [4 x i8] }>

; Function Attrs: mustprogress nounwind uwtable
define linkonce_odr dso_local noundef zeroext i1 @_ZN4base8internal10JSONParser10CanConsumeEi(ptr noundef nonnull align 8 dereferenceable(60) %this, i32 noundef %length) #0 comdat align 2 {
entry:
  %this.addr = alloca ptr, align 8
  %length.addr = alloca i32, align 4
  store ptr %this, ptr %this.addr, align 8
  store i32 %length, ptr %length.addr, align 4
  %this1 = load ptr, ptr %this.addr, align 8
  %pos_ = getelementptr inbounds %"class.base::internal::JSONParser", ptr %this1, i32 0, i32 3
  %0 = load ptr, ptr %pos_, align 8
  %1 = load i32, ptr %length.addr, align 4
  %idx.ext = sext i32 %1 to i64
  %add.ptr = getelementptr inbounds i8, ptr %0, i64 %idx.ext
  %end_pos_ = getelementptr inbounds %"class.base::internal::JSONParser", ptr %this1, i32 0, i32 4
  %2 = load ptr, ptr %end_pos_, align 8
  %cmp = icmp ule ptr %add.ptr, %2
  ret i1 %cmp
}

; Function Attrs: mustprogress uwtable
define dso_local noundef zeroext i1 @_ZN4base8internal10JSONParser10EatCommentEv(ptr noundef nonnull align 8 dereferenceable(60) %this) #1 align 2 {
entry:
  %retval = alloca i1, align 1
  %this.addr = alloca ptr, align 8
  %next_char = alloca i8, align 1
  %previous_char = alloca i8, align 1
  store ptr %this, ptr %this.addr, align 8
  %this1 = load ptr, ptr %this.addr, align 8
  %pos_ = getelementptr inbounds %"class.base::internal::JSONParser", ptr %this1, i32 0, i32 3
  %0 = load ptr, ptr %pos_, align 8
  %1 = load i8, ptr %0, align 1
  %conv = sext i8 %1 to i32
  %cmp = icmp ne i32 %conv, 47
  br i1 %cmp, label %if.then, label %lor.lhs.false

lor.lhs.false:                                    ; preds = %entry
  %call = call noundef zeroext i1 @_ZN4base8internal10JSONParser10CanConsumeEi(ptr noundef nonnull align 8 dereferenceable(60) %this1, i32 noundef 1)
  br i1 %call, label %if.end, label %if.then

if.then:                                          ; preds = %lor.lhs.false, %entry
  store i1 false, ptr %retval, align 1
  br label %return

if.end:                                           ; preds = %lor.lhs.false
  %call2 = call noundef ptr @_ZN4base8internal10JSONParser8NextCharEv(ptr noundef nonnull align 8 dereferenceable(60) %this1)
  %2 = load i8, ptr %call2, align 1
  store i8 %2, ptr %next_char, align 1
  %3 = load i8, ptr %next_char, align 1
  %conv3 = sext i8 %3 to i32
  %cmp4 = icmp eq i32 %conv3, 47
  br i1 %cmp4, label %if.then5, label %if.else

if.then5:                                         ; preds = %if.end
  br label %while.cond

while.cond:                                       ; preds = %if.end14, %if.then5
  %call6 = call noundef zeroext i1 @_ZN4base8internal10JSONParser10CanConsumeEi(ptr noundef nonnull align 8 dereferenceable(60) %this1, i32 noundef 1)
  br i1 %call6, label %while.body, label %while.end

while.body:                                       ; preds = %while.cond
  %call7 = call noundef ptr @_ZN4base8internal10JSONParser8NextCharEv(ptr noundef nonnull align 8 dereferenceable(60) %this1)
  %4 = load i8, ptr %call7, align 1
  store i8 %4, ptr %next_char, align 1
  %5 = load i8, ptr %next_char, align 1
  %conv8 = sext i8 %5 to i32
  %cmp9 = icmp eq i32 %conv8, 10
  br i1 %cmp9, label %if.then13, label %lor.lhs.false10

lor.lhs.false10:                                  ; preds = %while.body
  %6 = load i8, ptr %next_char, align 1
  %conv11 = sext i8 %6 to i32
  %cmp12 = icmp eq i32 %conv11, 13
  br i1 %cmp12, label %if.then13, label %if.end14

if.then13:                                        ; preds = %lor.lhs.false10, %while.body
  store i1 true, ptr %retval, align 1
  br label %return

if.end14:                                         ; preds = %lor.lhs.false10
  br label %while.cond, !llvm.loop !7

while.end:                                        ; preds = %while.cond
  br label %if.end31

if.else:                                          ; preds = %if.end
  %7 = load i8, ptr %next_char, align 1
  %conv15 = sext i8 %7 to i32
  %cmp16 = icmp eq i32 %conv15, 42
  br i1 %cmp16, label %if.then17, label %if.end30

if.then17:                                        ; preds = %if.else
  store i8 0, ptr %previous_char, align 1
  br label %while.cond18

while.cond18:                                     ; preds = %if.end28, %if.then17
  %call19 = call noundef zeroext i1 @_ZN4base8internal10JSONParser10CanConsumeEi(ptr noundef nonnull align 8 dereferenceable(60) %this1, i32 noundef 1)
  br i1 %call19, label %while.body20, label %while.end29

while.body20:                                     ; preds = %while.cond18
  %call21 = call noundef ptr @_ZN4base8internal10JSONParser8NextCharEv(ptr noundef nonnull align 8 dereferenceable(60) %this1)
  %8 = load i8, ptr %call21, align 1
  store i8 %8, ptr %next_char, align 1
  %9 = load i8, ptr %previous_char, align 1
  %conv22 = sext i8 %9 to i32
  %cmp23 = icmp eq i32 %conv22, 42
  br i1 %cmp23, label %land.lhs.true, label %if.end28

land.lhs.true:                                    ; preds = %while.body20
  %10 = load i8, ptr %next_char, align 1
  %conv24 = sext i8 %10 to i32
  %cmp25 = icmp eq i32 %conv24, 47
  br i1 %cmp25, label %if.then26, label %if.end28

if.then26:                                        ; preds = %land.lhs.true
  %call27 = call noundef ptr @_ZN4base8internal10JSONParser8NextCharEv(ptr noundef nonnull align 8 dereferenceable(60) %this1)
  store i1 true, ptr %retval, align 1
  br label %return

if.end28:                                         ; preds = %land.lhs.true, %while.body20
  %11 = load i8, ptr %next_char, align 1
  store i8 %11, ptr %previous_char, align 1
  br label %while.cond18, !llvm.loop !8

while.end29:                                      ; preds = %while.cond18
  br label %if.end30

if.end30:                                         ; preds = %while.end29, %if.else
  br label %if.end31

if.end31:                                         ; preds = %if.end30, %while.end
  store i1 false, ptr %retval, align 1
  br label %return

return:                                           ; preds = %if.end31, %if.then26, %if.then13, %if.then
  %12 = load i1, ptr %retval, align 1
  ret i1 %12
}

; Function Attrs: mustprogress nounwind uwtable
define dso_local noundef ptr @_ZN4base8internal10JSONParser8NextCharEv(ptr noundef nonnull align 8 dereferenceable(60) %this) #0 align 2 {
entry:
  %this.addr = alloca ptr, align 8
  store ptr %this, ptr %this.addr, align 8
  %this1 = load ptr, ptr %this.addr, align 8
  %index_ = getelementptr inbounds %"class.base::internal::JSONParser", ptr %this1, i32 0, i32 5
  %0 = load i32, ptr %index_, align 8
  %inc = add nsw i32 %0, 1
  store i32 %inc, ptr %index_, align 8
  %pos_ = getelementptr inbounds %"class.base::internal::JSONParser", ptr %this1, i32 0, i32 3
  %1 = load ptr, ptr %pos_, align 8
  %incdec.ptr = getelementptr inbounds i8, ptr %1, i32 1
  store ptr %incdec.ptr, ptr %pos_, align 8
  %pos_2 = getelementptr inbounds %"class.base::internal::JSONParser", ptr %this1, i32 0, i32 3
  %2 = load ptr, ptr %pos_2, align 8
  ret ptr %2
}

; Function Attrs: mustprogress uwtable
define dso_local void @_ZN4base8internal10JSONParser24EatWhitespaceAndCommentsEv(ptr noundef nonnull align 8 dereferenceable(60) %this) #1 align 2 {
entry:
  %this.addr = alloca ptr, align 8
  store ptr %this, ptr %this.addr, align 8
  %this1 = load ptr, ptr %this.addr, align 8
  br label %while.cond

while.cond:                                       ; preds = %sw.epilog, %entry
  %pos_ = getelementptr inbounds %"class.base::internal::JSONParser", ptr %this1, i32 0, i32 3
  %0 = load ptr, ptr %pos_, align 8
  %end_pos_ = getelementptr inbounds %"class.base::internal::JSONParser", ptr %this1, i32 0, i32 4
  %1 = load ptr, ptr %end_pos_, align 8
  %cmp = icmp ult ptr %0, %1
  br i1 %cmp, label %while.body, label %while.end

while.body:                                       ; preds = %while.cond
  %pos_2 = getelementptr inbounds %"class.base::internal::JSONParser", ptr %this1, i32 0, i32 3
  %2 = load ptr, ptr %pos_2, align 8
  %3 = load i8, ptr %2, align 1
  %conv = sext i8 %3 to i32
  switch i32 %conv, label %sw.default [
    i32 13, label %sw.bb
    i32 10, label %sw.bb
    i32 32, label %sw.bb12
    i32 9, label %sw.bb12
    i32 47, label %sw.bb13
  ]

sw.bb:                                            ; preds = %while.body, %while.body
  %index_ = getelementptr inbounds %"class.base::internal::JSONParser", ptr %this1, i32 0, i32 5
  %4 = load i32, ptr %index_, align 8
  %index_last_line_ = getelementptr inbounds %"class.base::internal::JSONParser", ptr %this1, i32 0, i32 8
  store i32 %4, ptr %index_last_line_, align 4
  %pos_3 = getelementptr inbounds %"class.base::internal::JSONParser", ptr %this1, i32 0, i32 3
  %5 = load ptr, ptr %pos_3, align 8
  %6 = load i8, ptr %5, align 1
  %conv4 = sext i8 %6 to i32
  %cmp5 = icmp eq i32 %conv4, 10
  br i1 %cmp5, label %land.lhs.true, label %if.then

land.lhs.true:                                    ; preds = %sw.bb
  %pos_6 = getelementptr inbounds %"class.base::internal::JSONParser", ptr %this1, i32 0, i32 3
  %7 = load ptr, ptr %pos_6, align 8
  %start_pos_ = getelementptr inbounds %"class.base::internal::JSONParser", ptr %this1, i32 0, i32 2
  %8 = load ptr, ptr %start_pos_, align 8
  %cmp7 = icmp ugt ptr %7, %8
  br i1 %cmp7, label %land.lhs.true8, label %if.then

land.lhs.true8:                                   ; preds = %land.lhs.true
  %pos_9 = getelementptr inbounds %"class.base::internal::JSONParser", ptr %this1, i32 0, i32 3
  %9 = load ptr, ptr %pos_9, align 8
  %add.ptr = getelementptr inbounds i8, ptr %9, i64 -1
  %10 = load i8, ptr %add.ptr, align 1
  %conv10 = sext i8 %10 to i32
  %cmp11 = icmp eq i32 %conv10, 13
  br i1 %cmp11, label %if.end, label %if.then

if.then:                                          ; preds = %land.lhs.true8, %land.lhs.true, %sw.bb
  %line_number_ = getelementptr inbounds %"class.base::internal::JSONParser", ptr %this1, i32 0, i32 7
  %11 = load i32, ptr %line_number_, align 8
  %inc = add nsw i32 %11, 1
  store i32 %inc, ptr %line_number_, align 8
  br label %if.end

if.end:                                           ; preds = %if.then, %land.lhs.true8
  br label %sw.bb12

sw.bb12:                                          ; preds = %if.end, %while.body, %while.body
  %call = call noundef ptr @_ZN4base8internal10JSONParser8NextCharEv(ptr noundef nonnull align 8 dereferenceable(60) %this1)
  br label %sw.epilog

sw.bb13:                                          ; preds = %while.body
  %call14 = call noundef zeroext i1 @_ZN4base8internal10JSONParser10EatCommentEv(ptr noundef nonnull align 8 dereferenceable(60) %this1)
  br i1 %call14, label %if.end16, label %if.then15

if.then15:                                        ; preds = %sw.bb13
  br label %while.end

if.end16:                                         ; preds = %sw.bb13
  br label %sw.epilog

sw.default:                                       ; preds = %while.body
  br label %while.end

sw.epilog:                                        ; preds = %if.end16, %sw.bb12
  br label %while.cond, !llvm.loop !5

while.end:                                        ; preds = %sw.default, %if.then15, %while.cond
  ret void
}