; Function Attrs: mustprogress nofree norecurse nosync nounwind memory(read, argmem: readwrite, inaccessiblemem: none) uwtable
define dso_local void @_ZN4base8internal10JSONParser24EatWhitespaceAndCommentsEv(ptr nocapture noundef nonnull align 8 dereferenceable(60) %this) local_unnamed_addr #7 align 2 {
entry:
  %pos_ = getelementptr inbounds i8, ptr %this, i64 16
  %end_pos_ = getelementptr inbounds i8, ptr %this, i64 24
  %0 = load ptr, ptr %end_pos_, align 8
  %pos_.promoted = load ptr, ptr %pos_, align 8
  %cmp12 = icmp ult ptr %pos_.promoted, %0
  br i1 %cmp12, label %while.body.lr.ph, label %while.end

while.body.lr.ph:                                 ; preds = %entry
  %index_.i.i = getelementptr inbounds i8, ptr %this, i64 32
  %index_last_line_ = getelementptr inbounds i8, ptr %this, i64 44
  %start_pos_ = getelementptr inbounds i8, ptr %this, i64 8
  %1 = load ptr, ptr %start_pos_, align 8
  %line_number_ = getelementptr inbounds i8, ptr %this, i64 40
  %index_.i.i.promoted = load i32, ptr %index_.i.i, align 8
  %line_number_.promoted = load i32, ptr %line_number_, align 8
  br label %while.body

while.body:                                       ; preds = %while.body.lr.ph, %sw.epilog
  %2 = phi i32 [ %line_number_.promoted, %while.body.lr.ph ], [ %12, %sw.epilog ]
  %inc.i13.i14 = phi i32 [ %index_.i.i.promoted, %while.body.lr.ph ], [ %inc.i13.i15, %sw.epilog ]
  %add.ptr.i.i813 = phi ptr [ %pos_.promoted, %while.body.lr.ph ], [ %add.ptr.i.i9, %sw.epilog ]
  %3 = load i8, ptr %add.ptr.i.i813, align 1
  switch i8 %3, label %while.end [
    i8 13, label %sw.bb
    i8 10, label %sw.bb
    i8 32, label %sw.bb12
    i8 9, label %sw.bb12
    i8 47, label %lor.lhs.false.i
  ]

sw.bb:                                            ; preds = %while.body, %while.body
  store i32 %inc.i13.i14, ptr %index_last_line_, align 4
  %4 = load i8, ptr %add.ptr.i.i813, align 1
  %cmp5 = icmp eq i8 %4, 10
  %cmp7 = icmp ugt ptr %add.ptr.i.i813, %1
  %or.cond = select i1 %cmp5, i1 %cmp7, i1 false
  br i1 %or.cond, label %land.lhs.true8, label %if.then

land.lhs.true8:                                   ; preds = %sw.bb
  %add.ptr = getelementptr inbounds i8, ptr %add.ptr.i.i813, i64 -1
  %5 = load i8, ptr %add.ptr, align 1
  %cmp11 = icmp eq i8 %5, 13
  br i1 %cmp11, label %sw.bb12, label %if.then

if.then:                                          ; preds = %land.lhs.true8, %sw.bb
  %inc = add nsw i32 %2, 1
  store i32 %inc, ptr %line_number_, align 8
  br label %sw.bb12

sw.bb12:                                          ; preds = %land.lhs.true8, %if.then, %while.body, %while.body
  %6 = phi i32 [ %2, %land.lhs.true8 ], [ %inc, %if.then ], [ %2, %while.body ], [ %2, %while.body ]
  %inc.i = add nsw i32 %inc.i13.i14, 1
  store i32 %inc.i, ptr %index_.i.i, align 8
  %incdec.ptr.i = getelementptr inbounds i8, ptr %add.ptr.i.i813, i64 1
  br label %sw.epilog.sink.split

lor.lhs.false.i:                                  ; preds = %while.body
  %add.ptr.i.i = getelementptr inbounds i8, ptr %add.ptr.i.i813, i64 1
  %inc.i.i = add nsw i32 %inc.i13.i14, 1
  store i32 %inc.i.i, ptr %index_.i.i, align 8
  store ptr %add.ptr.i.i, ptr %pos_, align 8
  %7 = load i8, ptr %add.ptr.i.i, align 1
  switch i8 %7, label %while.end [
    i8 47, label %while.cond.i
    i8 42, label %while.cond18.i
  ]

while.cond.i:                                     ; preds = %lor.lhs.false.i, %while.body.i
  %8 = phi i32 [ %inc.i13.i, %while.body.i ], [ %inc.i.i, %lor.lhs.false.i ]
  %add.ptr.i933.i = phi ptr [ %add.ptr.i9.i, %while.body.i ], [ %add.ptr.i.i, %lor.lhs.false.i ]
  %add.ptr.i9.i = getelementptr inbounds i8, ptr %add.ptr.i933.i, i64 1
  %cmp.i11.not.not.i = icmp ugt ptr %add.ptr.i9.i, %0
  br i1 %cmp.i11.not.not.i, label %while.end, label %while.body.i

while.body.i:                                     ; preds = %while.cond.i
  %inc.i13.i = add nsw i32 %8, 1
  store i32 %inc.i13.i, ptr %index_.i.i, align 8
  store ptr %add.ptr.i9.i, ptr %pos_, align 8
  %9 = load i8, ptr %add.ptr.i9.i, align 1
  switch i8 %9, label %while.cond.i [
    i8 13, label %sw.epilog
    i8 10, label %sw.epilog
  ]

while.cond18.i:                                   ; preds = %lor.lhs.false.i, %while.body20.i
  %10 = phi i32 [ %inc.i21.i, %while.body20.i ], [ %inc.i.i, %lor.lhs.false.i ]
  %add.ptr.i1731.i = phi ptr [ %add.ptr.i17.i, %while.body20.i ], [ %add.ptr.i.i, %lor.lhs.false.i ]
  %previous_char.0.i = phi i8 [ %11, %while.body20.i ], [ 0, %lor.lhs.false.i ]
  %add.ptr.i17.i = getelementptr inbounds i8, ptr %add.ptr.i1731.i, i64 1
  %cmp.i19.not.i = icmp ugt ptr %add.ptr.i17.i, %0
  br i1 %cmp.i19.not.i, label %while.end, label %while.body20.i

while.body20.i:                                   ; preds = %while.cond18.i
  %inc.i21.i = add nsw i32 %10, 1
  store i32 %inc.i21.i, ptr %index_.i.i, align 8
  store ptr %add.ptr.i17.i, ptr %pos_, align 8
  %11 = load i8, ptr %add.ptr.i17.i, align 1
  %cmp23.i = icmp eq i8 %previous_char.0.i, 42
  %cmp25.i = icmp eq i8 %11, 47
  %or.cond1.i = select i1 %cmp23.i, i1 %cmp25.i, i1 false
  br i1 %or.cond1.i, label %if.then26.i, label %while.cond18.i, !llvm.loop !21

if.then26.i:                                      ; preds = %while.body20.i
  %inc.i25.i = add nsw i32 %10, 2
  store i32 %inc.i25.i, ptr %index_.i.i, align 8
  %incdec.ptr.i27.i = getelementptr inbounds i8, ptr %add.ptr.i1731.i, i64 2
  br label %sw.epilog.sink.split

sw.epilog.sink.split:                             ; preds = %sw.bb12, %if.then26.i
  %incdec.ptr.i27.i.sink = phi ptr [ %incdec.ptr.i27.i, %if.then26.i ], [ %incdec.ptr.i, %sw.bb12 ]
  %.ph = phi i32 [ %2, %if.then26.i ], [ %6, %sw.bb12 ]
  %inc.i13.i15.ph = phi i32 [ %inc.i25.i, %if.then26.i ], [ %inc.i, %sw.bb12 ]
  store ptr %incdec.ptr.i27.i.sink, ptr %pos_, align 8
  br label %sw.epilog

sw.epilog:                                        ; preds = %while.body.i, %while.body.i, %sw.epilog.sink.split
  %12 = phi i32 [ %.ph, %sw.epilog.sink.split ], [ %2, %while.body.i ], [ %2, %while.body.i ]
  %inc.i13.i15 = phi i32 [ %inc.i13.i15.ph, %sw.epilog.sink.split ], [ %inc.i13.i, %while.body.i ], [ %inc.i13.i, %while.body.i ]
  %add.ptr.i.i9 = phi ptr [ %incdec.ptr.i27.i.sink, %sw.epilog.sink.split ], [ %add.ptr.i9.i, %while.body.i ], [ %add.ptr.i9.i, %while.body.i ]
  %cmp = icmp ult ptr %add.ptr.i.i9, %0
  br i1 %cmp, label %while.body, label %while.end, !llvm.loop !23

while.end:                                        ; preds = %sw.epilog, %while.body, %lor.lhs.false.i, %while.cond18.i, %while.cond.i, %entry
  ret void
}